target datalayout = "e-m:e-p270:32:32-p271:32:32-p272:64:64-i64:64-i128:128-f80:128-n8:16:32:64-S128"
target triple = "x86_64-pc-linux-gnu"

%"class.cv::Mat" = type { i32, i32, i32, i32, ptr, ptr, ptr, ptr, ptr, ptr, %"struct.cv::MatSize", %"struct.cv::MatStep" }
%"struct.cv::MatSize" = type { ptr }
%"struct.cv::MatStep" = type { ptr, [2 x i64] }
%"class.cv::_InputArray" = type { i32, ptr, %"class.cv::Size_" }
%"class.cv::Size_" = type { i32, i32 }
%"class.cv::MatExpr" = type { ptr, i32, %"class.cv::Mat", %"class.cv::Mat", %"class.cv::Mat", double, double, %"class.cv::Scalar_" }
%"class.cv::Scalar_" = type { %"class.cv::Vec" }
%"class.cv::Vec" = type { %"class.cv::Matx" }
%"class.cv::Matx" = type { [4 x double] }
%"class.cv::Range" = type { i32, i32 }

; Function Attrs: inlinehint mustprogress uwtable
define linkonce_odr hidden i64 @_ZN2cv5Range3allEv() #8 comdat align 2 {
  %1 = alloca %"class.cv::Range", align 4
  call void @_ZN2cv5RangeC2Eii(ptr noundef nonnull align 4 dereferenceable(8) %1, i32 noundef -2147483648, i32 noundef 2147483647)
  %2 = load i64, ptr %1, align 4
  ret i64 %2
}

; Function Attrs: inlinehint mustprogress nounwind uwtable
define linkonce_odr hidden void @_ZN2cv5RangeC2Eii(ptr noundef nonnull align 4 dereferenceable(8) %0, i32 noundef %1, i32 noundef %2) unnamed_addr #9 comdat align 2 {
  %4 = alloca ptr, align 8
  %5 = alloca i32, align 4
  %6 = alloca i32, align 4
  store ptr %0, ptr %4, align 8, !tbaa !62
  store i32 %1, ptr %5, align 4, !tbaa !17
  store i32 %2, ptr %6, align 4, !tbaa !17
  %7 = load ptr, ptr %4, align 8
  %8 = getelementptr inbounds nuw %"class.cv::Range", ptr %7, i32 0, i32 0
  %9 = load i32, ptr %5, align 4, !tbaa !17
  store i32 %9, ptr %8, align 4, !tbaa !64
  %10 = getelementptr inbounds nuw %"class.cv::Range", ptr %7, i32 0, i32 1
  %11 = load i32, ptr %6, align 4, !tbaa !17
  store i32 %11, ptr %10, align 4, !tbaa !66
  ret void
}

; Function Attrs: inlinehint mustprogress nounwind uwtable
define linkonce_odr hidden void @_ZN2cv11_InputArrayD2Ev(ptr noundef nonnull align 8 dereferenceable(24) %0) unnamed_addr #9 comdat align 2 {
  %2 = alloca ptr, align 8
  store ptr %0, ptr %2, align 8, !tbaa !39
  ret void
}

; Function Attrs: inlinehint mustprogress uwtable
define linkonce_odr hidden void @_ZNK2cv3Mat3rowEi(ptr dead_on_unwind noalias writable sret(%"class.cv::Mat") align 8 %0, ptr noundef nonnull align 8 dereferenceable(96) %1, i32 noundef %2) #8 comdat align 2 {
  %4 = alloca ptr, align 8
  %5 = alloca ptr, align 8
  %6 = alloca i32, align 4
  %7 = alloca %"class.cv::Range", align 4
  %8 = alloca %"class.cv::Range", align 4
  store ptr %0, ptr %4, align 8
  store ptr %1, ptr %5, align 8, !tbaa !32
  store i32 %2, ptr %6, align 4, !tbaa !17
  %9 = load ptr, ptr %5, align 8
  call void @llvm.lifetime.start.p0(i64 8, ptr %7) #3
  %10 = load i32, ptr %6, align 4, !tbaa !17
  %11 = load i32, ptr %6, align 4, !tbaa !17
  %12 = add nsw i32 %11, 1
  call void @_ZN2cv5RangeC2Eii(ptr noundef nonnull align 4 dereferenceable(8) %7, i32 noundef %10, i32 noundef %12)
  call void @llvm.lifetime.start.p0(i64 8, ptr %8) #3
  %13 = call i64 @_ZN2cv5Range3allEv()
  store i64 %13, ptr %8, align 4
  call void @_ZN2cv3MatC1ERKS0_RKNS_5RangeES5_(ptr noundef nonnull align 8 dereferenceable(96) %0, ptr noundef nonnull align 8 dereferenceable(96) %9, ptr noundef nonnull align 4 dereferenceable(8) %7, ptr noundef nonnull align 4 dereferenceable(8) %8)
  call void @llvm.lifetime.end.p0(i64 8, ptr %8) #3
  call void @llvm.lifetime.end.p0(i64 8, ptr %7) #3
  ret void
}

; Function Attrs: mustprogress uwtable
define internal void @_ZL9showImageRKN2cv3MatEiRKNSt7__cxx1112basic_stringIcSt11char_traitsIcESaIcEEE(ptr noundef nonnull align 8 dereferenceable(96) %0, i32 noundef %1, ptr noundef nonnull align 8 dereferenceable(32) %2) #7 personality ptr @__gxx_personality_v0 {
  %4 = alloca ptr, align 8
  %5 = alloca i32, align 4
  %6 = alloca ptr, align 8
  %7 = alloca %"class.cv::Mat", align 8
  %8 = alloca i32, align 4
  %9 = alloca %"class.cv::Mat", align 8
  %10 = alloca %"class.cv::Mat", align 8
  %11 = alloca ptr, align 8
  %12 = alloca i32, align 4
  %13 = alloca %"class.cv::_InputArray", align 8
  %14 = alloca %"class.cv::MatExpr", align 8
  store ptr %0, ptr %4, align 8, !tbaa !32
  store i32 %1, ptr %5, align 4, !tbaa !17
  store ptr %2, ptr %6, align 8, !tbaa !24
  call void @llvm.lifetime.start.p0(i64 96, ptr %7) #3
  call void @_ZN2cv3MatC1Ev(ptr noundef nonnull align 8 dereferenceable(96) %7) #3
  call void @llvm.lifetime.start.p0(i64 4, ptr %8) #3
  store i32 0, ptr %8, align 4, !tbaa !17
  br label %15

15:                                               ; preds = %29, %3
  %16 = load i32, ptr %8, align 4, !tbaa !17
  %17 = load ptr, ptr %4, align 8, !tbaa !32
  %18 = getelementptr inbounds nuw %"class.cv::Mat", ptr %17, i32 0, i32 2
  %19 = load i32, ptr %18, align 8, !tbaa !4
  %20 = icmp slt i32 %16, %19
  br i1 %20, label %22, label %21

21:                                               ; preds = %15
  call void @llvm.lifetime.end.p0(i64 4, ptr %8) #3
  br label %46

22:                                               ; preds = %15
  call void @llvm.lifetime.start.p0(i64 96, ptr %9) #3
  call void @llvm.lifetime.start.p0(i64 96, ptr %10) #3
  %23 = load ptr, ptr %4, align 8, !tbaa !32
  %24 = load i32, ptr %8, align 4, !tbaa !17
  invoke void @_ZNK2cv3Mat3rowEi(ptr dead_on_unwind writable sret(%"class.cv::Mat") align 8 %10, ptr noundef nonnull align 8 dereferenceable(96) %23, i32 noundef %24)
          to label %25 unwind label %32

25:                                               ; preds = %22
  %26 = load i32, ptr %5, align 4, !tbaa !17
  invoke void @_ZNK2cv3Mat7reshapeEii(ptr dead_on_unwind writable sret(%"class.cv::Mat") align 8 %9, ptr noundef nonnull align 8 dereferenceable(96) %10, i32 noundef 0, i32 noundef %26)
          to label %27 unwind label %36

27:                                               ; preds = %25
  invoke void @_ZN2cv3Mat9push_backERKS0_(ptr noundef nonnull align 8 dereferenceable(96) %7, ptr noundef nonnull align 8 dereferenceable(96) %9)
          to label %28 unwind label %40

28:                                               ; preds = %27
  call void @_ZN2cv3MatD1Ev(ptr noundef nonnull align 8 dereferenceable(96) %9) #3
  call void @_ZN2cv3MatD1Ev(ptr noundef nonnull align 8 dereferenceable(96) %10) #3
  call void @llvm.lifetime.end.p0(i64 96, ptr %10) #3
  call void @llvm.lifetime.end.p0(i64 96, ptr %9) #3
  br label %29

29:                                               ; preds = %28
  %30 = load i32, ptr %8, align 4, !tbaa !17
  %31 = add nsw i32 %30, 1
  store i32 %31, ptr %8, align 4, !tbaa !17
  br label %15, !llvm.loop !36

32:                                               ; preds = %22
  %33 = landingpad { ptr, i32 }
          cleanup
  %34 = extractvalue { ptr, i32 } %33, 0
  store ptr %34, ptr %11, align 8
  %35 = extractvalue { ptr, i32 } %33, 1
  store i32 %35, ptr %12, align 4
  br label %45

36:                                               ; preds = %25
  %37 = landingpad { ptr, i32 }
          cleanup
  %38 = extractvalue { ptr, i32 } %37, 0
  store ptr %38, ptr %11, align 8
  %39 = extractvalue { ptr, i32 } %37, 1
  store i32 %39, ptr %12, align 4
  br label %44

40:                                               ; preds = %27
  %41 = landingpad { ptr, i32 }
          cleanup
  %42 = extractvalue { ptr, i32 } %41, 0
  store ptr %42, ptr %11, align 8
  %43 = extractvalue { ptr, i32 } %41, 1
  store i32 %43, ptr %12, align 4
  call void @_ZN2cv3MatD1Ev(ptr noundef nonnull align 8 dereferenceable(96) %9) #3
  br label %44

44:                                               ; preds = %40, %36
  call void @_ZN2cv3MatD1Ev(ptr noundef nonnull align 8 dereferenceable(96) %10) #3
  br label %45

45:                                               ; preds = %44, %32
  call void @llvm.lifetime.end.p0(i64 96, ptr %10) #3
  call void @llvm.lifetime.end.p0(i64 96, ptr %9) #3
  call void @llvm.lifetime.end.p0(i64 4, ptr %8) #3
  br label %65

46:                                               ; preds = %21
  %47 = load ptr, ptr %6, align 8, !tbaa !24
  call void @llvm.lifetime.start.p0(i64 24, ptr %13) #3
  call void @llvm.lifetime.start.p0(i64 352, ptr %14) #3
  invoke void @_ZNK2cv3Mat1tEv(ptr dead_on_unwind writable sret(%"class.cv::MatExpr") align 8 %14, ptr noundef nonnull align 8 dereferenceable(96) %7)
          to label %48 unwind label %51

48:                                               ; preds = %46
  invoke void @_ZN2cv11_InputArrayC1ERKNS_7MatExprE(ptr noundef nonnull align 8 dereferenceable(24) %13, ptr noundef nonnull align 8 dereferenceable(352) %14)
          to label %49 unwind label %55

49:                                               ; preds = %48
  invoke void @_ZN2cv6imshowERKNSt7__cxx1112basic_stringIcSt11char_traitsIcESaIcEEERKNS_11_InputArrayE(ptr noundef nonnull align 8 dereferenceable(32) %47, ptr noundef nonnull align 8 dereferenceable(24) %13)
          to label %50 unwind label %59

50:                                               ; preds = %49
  call void @_ZN2cv11_InputArrayD2Ev(ptr noundef nonnull align 8 dereferenceable(24) %13) #3
  call void @_ZN2cv7MatExprD2Ev(ptr noundef nonnull align 8 dereferenceable(352) %14) #3
  call void @llvm.lifetime.end.p0(i64 352, ptr %14) #3
  call void @llvm.lifetime.end.p0(i64 24, ptr %13) #3
  call void @_ZN2cv3MatD1Ev(ptr noundef nonnull align 8 dereferenceable(96) %7) #3
  call void @llvm.lifetime.end.p0(i64 96, ptr %7) #3
  ret void

51:                                               ; preds = %46
  %52 = landingpad { ptr, i32 }
          cleanup
  %53 = extractvalue { ptr, i32 } %52, 0
  store ptr %53, ptr %11, align 8
  %54 = extractvalue { ptr, i32 } %52, 1
  store i32 %54, ptr %12, align 4
  br label %64

55:                                               ; preds = %48
  %56 = landingpad { ptr, i32 }
          cleanup
  %57 = extractvalue { ptr, i32 } %56, 0
  store ptr %57, ptr %11, align 8
  %58 = extractvalue { ptr, i32 } %56, 1
  store i32 %58, ptr %12, align 4
  br label %63

59:                                               ; preds = %49
  %60 = landingpad { ptr, i32 }
          cleanup
  %61 = extractvalue { ptr, i32 } %60, 0
  store ptr %61, ptr %11, align 8
  %62 = extractvalue { ptr, i32 } %60, 1
  store i32 %62, ptr %12, align 4
  call void @_ZN2cv11_InputArrayD2Ev(ptr noundef nonnull align 8 dereferenceable(24) %13) #3
  br label %63

63:                                               ; preds = %59, %55
  call void @_ZN2cv7MatExprD2Ev(ptr noundef nonnull align 8 dereferenceable(352) %14) #3
  br label %64

64:                                               ; preds = %63, %51
  call void @llvm.lifetime.end.p0(i64 352, ptr %14) #3
  call void @llvm.lifetime.end.p0(i64 24, ptr %13) #3
  br label %65

65:                                               ; preds = %64, %45
  call void @_ZN2cv3MatD1Ev(ptr noundef nonnull align 8 dereferenceable(96) %7) #3
  call void @llvm.lifetime.end.p0(i64 96, ptr %7) #3
  br label %66

66:                                               ; preds = %65
  %67 = load ptr, ptr %11, align 8
  %68 = load i32, ptr %12, align 4
  %69 = insertvalue { ptr, i32 } poison, ptr %67, 0
  %70 = insertvalue { ptr, i32 } %69, i32 %68, 1
  resume { ptr, i32 } %70
}