; Function Attrs: mustprogress norecurse uwtable
define internal fastcc void @_ZL9showImageRKN2cv3MatEiRKNSt7__cxx1112basic_stringIcSt11char_traitsIcESaIcEEE(ptr noundef nonnull align 8 dereferenceable(96) %0, ptr noundef nonnull align 8 dereferenceable(32) %1) unnamed_addr #3 personality ptr @__gxx_personality_v0 {
  %3 = alloca %"class.cv::Range", align 4
  %4 = alloca %"class.cv::Range", align 8
  %5 = alloca %"class.cv::Mat", align 8
  %6 = alloca %"class.cv::Mat", align 8
  %7 = alloca %"class.cv::Mat", align 8
  %8 = alloca %"class.cv::_InputArray", align 8
  %9 = alloca %"class.cv::MatExpr", align 8
  call void @llvm.lifetime.start.p0(i64 96, ptr nonnull %5) #17
  call void @_ZN2cv3MatC1Ev(ptr noundef nonnull align 8 dereferenceable(96) %5) #17
  %10 = getelementptr inbounds nuw i8, ptr %0, i64 8
  %11 = load i32, ptr %10, align 8, !tbaa !44
  %12 = icmp sgt i32 %11, 0
  br i1 %12, label %.lr.ph, label %._crit_edge

.lr.ph:                                           ; preds = %2
  %13 = getelementptr inbounds nuw i8, ptr %3, i64 4
  br label %14

._crit_edge:                                      ; preds = %18, %2
  call void @llvm.lifetime.start.p0(i64 24, ptr nonnull %8) #17
  call void @llvm.lifetime.start.p0(i64 352, ptr nonnull %9) #17
  invoke void @_ZNK2cv3Mat1tEv(ptr dead_on_unwind nonnull writable sret(%"class.cv::MatExpr") align 8 %9, ptr noundef nonnull align 8 dereferenceable(96) %5)
          to label %29 unwind label %35

14:                                               ; preds = %.lr.ph, %18
  %.01320 = phi i32 [ 0, %.lr.ph ], [ %15, %18 ]
  call void @llvm.lifetime.start.p0(i64 96, ptr nonnull %6) #17
  call void @llvm.lifetime.start.p0(i64 96, ptr nonnull %7) #17
  call void @llvm.lifetime.start.p0(i64 8, ptr nonnull %3) #17, !noalias !101
  %15 = add nuw nsw i32 %.01320, 1
  store i32 %.01320, ptr %3, align 4, !tbaa !54, !noalias !101
  store i32 %15, ptr %13, align 4, !tbaa !56, !noalias !101
  call void @llvm.lifetime.start.p0(i64 8, ptr nonnull %4) #17, !noalias !101
  store i64 9223372034707292160, ptr %4, align 8, !noalias !101
  invoke void @_ZN2cv3MatC1ERKS0_RKNS_5RangeES5_(ptr noundef nonnull align 8 dereferenceable(96) %7, ptr noundef nonnull align 8 dereferenceable(96) %0, ptr noundef nonnull align 4 dereferenceable(8) %3, ptr noundef nonnull align 4 dereferenceable(8) %4)
          to label %16 unwind label %21

16:                                               ; preds = %14
  call void @llvm.lifetime.end.p0(i64 8, ptr nonnull %4) #17, !noalias !101
  call void @llvm.lifetime.end.p0(i64 8, ptr nonnull %3) #17, !noalias !101
  invoke void @_ZNK2cv3Mat7reshapeEii(ptr dead_on_unwind nonnull writable sret(%"class.cv::Mat") align 8 %6, ptr noundef nonnull align 8 dereferenceable(96) %7, i32 noundef 0, i32 noundef 28)
          to label %17 unwind label %23

17:                                               ; preds = %16
  invoke void @_ZN2cv3Mat9push_backERKS0_(ptr noundef nonnull align 8 dereferenceable(96) %5, ptr noundef nonnull align 8 dereferenceable(96) %6)
          to label %18 unwind label %25

18:                                               ; preds = %17
  call void @_ZN2cv3MatD1Ev(ptr noundef nonnull align 8 dereferenceable(96) %6) #17
  call void @_ZN2cv3MatD1Ev(ptr noundef nonnull align 8 dereferenceable(96) %7) #17
  call void @llvm.lifetime.end.p0(i64 96, ptr nonnull %7) #17
  call void @llvm.lifetime.end.p0(i64 96, ptr nonnull %6) #17
  %19 = load i32, ptr %10, align 8, !tbaa !44
  %20 = icmp slt i32 %15, %19
  br i1 %20, label %14, label %._crit_edge, !llvm.loop !104

21:                                               ; preds = %14
  %22 = landingpad { ptr, i32 }
          cleanup
  br label %28

23:                                               ; preds = %16
  %24 = landingpad { ptr, i32 }
          cleanup
  br label %27

25:                                               ; preds = %17
  %26 = landingpad { ptr, i32 }
          cleanup
  call void @_ZN2cv3MatD1Ev(ptr noundef nonnull align 8 dereferenceable(96) %6) #17
  br label %27

27:                                               ; preds = %25, %23
  %.pn16 = phi { ptr, i32 } [ %26, %25 ], [ %24, %23 ]
  call void @_ZN2cv3MatD1Ev(ptr noundef nonnull align 8 dereferenceable(96) %7) #17
  br label %28

28:                                               ; preds = %27, %21
  %.pn16.pn = phi { ptr, i32 } [ %.pn16, %27 ], [ %22, %21 ]
  call void @llvm.lifetime.end.p0(i64 96, ptr nonnull %7) #17
  call void @llvm.lifetime.end.p0(i64 96, ptr nonnull %6) #17
  br label %43

29:                                               ; preds = %._crit_edge
  invoke void @_ZN2cv11_InputArrayC1ERKNS_7MatExprE(ptr noundef nonnull align 8 dereferenceable(24) %8, ptr noundef nonnull align 8 dereferenceable(352) %9)
          to label %30 unwind label %37

30:                                               ; preds = %29
  invoke void @_ZN2cv6imshowERKNSt7__cxx1112basic_stringIcSt11char_traitsIcESaIcEEERKNS_11_InputArrayE(ptr noundef nonnull align 8 dereferenceable(32) %1, ptr noundef nonnull align 8 dereferenceable(24) %8)
          to label %31 unwind label %39

31:                                               ; preds = %30
  %32 = getelementptr inbounds nuw i8, ptr %9, i64 208
  call void @_ZN2cv3MatD1Ev(ptr noundef nonnull align 8 dereferenceable(96) %32) #17
  %33 = getelementptr inbounds nuw i8, ptr %9, i64 112
  call void @_ZN2cv3MatD1Ev(ptr noundef nonnull align 8 dereferenceable(96) %33) #17
  %34 = getelementptr inbounds nuw i8, ptr %9, i64 16
  call void @_ZN2cv3MatD1Ev(ptr noundef nonnull align 8 dereferenceable(96) %34) #17
  call void @llvm.lifetime.end.p0(i64 352, ptr nonnull %9) #17
  call void @llvm.lifetime.end.p0(i64 24, ptr nonnull %8) #17
  call void @_ZN2cv3MatD1Ev(ptr noundef nonnull align 8 dereferenceable(96) %5) #17
  call void @llvm.lifetime.end.p0(i64 96, ptr nonnull %5) #17
  ret void

35:                                               ; preds = %._crit_edge
  %36 = landingpad { ptr, i32 }
          cleanup
  br label %42

37:                                               ; preds = %29
  %38 = landingpad { ptr, i32 }
          cleanup
  br label %41

39:                                               ; preds = %30
  %40 = landingpad { ptr, i32 }
          cleanup
  br label %41

41:                                               ; preds = %39, %37
  %.pn = phi { ptr, i32 } [ %40, %39 ], [ %38, %37 ]
  call void @_ZN2cv7MatExprD2Ev(ptr noundef nonnull align 8 dereferenceable(352) %9) #17
  br label %42

42:                                               ; preds = %41, %35
  %.pn.pn = phi { ptr, i32 } [ %.pn, %41 ], [ %36, %35 ]
  call void @llvm.lifetime.end.p0(i64 352, ptr nonnull %9) #17
  call void @llvm.lifetime.end.p0(i64 24, ptr nonnull %8) #17
  br label %43

43:                                               ; preds = %42, %28
  %.pn16.pn.pn = phi { ptr, i32 } [ %.pn16.pn, %28 ], [ %.pn.pn, %42 ]
  call void @_ZN2cv3MatD1Ev(ptr noundef nonnull align 8 dereferenceable(96) %5) #17
  call void @llvm.lifetime.end.p0(i64 96, ptr nonnull %5) #17
  resume { ptr, i32 } %.pn16.pn.pn
}